target datalayout = "e-m:e-p270:32:32-p271:32:32-p272:64:64-i64:64-i128:128-f80:128-n8:16:32:64-S128"
target triple = "x86_64-pc-linux-gnu"

%struct.b2BodyId = type { i32, i16, i16 }
%struct.b2Vec2 = type { float, float }
%struct.b2Rot = type { float, float }
%struct.b2BodyArray = type { ptr, i32, i32 }
%struct.b2BodySimArray = type { ptr, i32, i32 }
%struct.b2BodyStateArray = type { ptr, i32, i32 }
%struct.b2World = type { %struct.b2ArenaAllocator, %struct.b2BroadPhase, %struct.b2ConstraintGraph, %struct.b2IdPool, %struct.b2BodyArray, %struct.b2IdPool, %struct.b2SolverSetArray, %struct.b2IdPool, %struct.b2JointArray, %struct.b2IdPool, %struct.b2ContactArray, %struct.b2IdPool, %struct.b2IslandArray, %struct.b2IdPool, %struct.b2IdPool, %struct.b2ShapeArray, %struct.b2ChainShapeArray, %struct.b2SensorArray, %struct.b2TaskContextArray, %struct.b2SensorTaskContextArray, %struct.b2BodyMoveEventArray, %struct.b2SensorBeginTouchEventArray, %struct.b2ContactBeginTouchEventArray, [2 x %struct.b2SensorEndTouchEventArray], [2 x %struct.b2ContactEndTouchEventArray], i32, %struct.b2ContactHitEventArray, %struct.b2BitSet, %struct.b2BitSet, %struct.b2BitSet, i64, i32, %struct.b2Vec2, float, float, float, float, float, float, float, float, ptr, ptr, i16, %struct.b2Profile, ptr, ptr, ptr, ptr, i32, ptr, ptr, ptr, ptr, ptr, float, i32, i32, i16, i8, i8, i8, i8, i8, i8 }
%struct.b2ArenaAllocator = type { ptr, i32, i32, i32, i32, %struct.b2ArenaEntryArray }
%struct.b2ArenaEntryArray = type { ptr, i32, i32 }
%struct.b2BroadPhase = type { [3 x %struct.b2DynamicTree], i32, %struct.b2HashSet, %struct.b2IntArray, ptr, ptr, i32, %struct.b2AtomicInt, %struct.b2HashSet }
%struct.b2DynamicTree = type { ptr, i32, i32, i32, i32, i32, ptr, ptr, ptr, ptr, i32 }
%struct.b2IntArray = type { ptr, i32, i32 }
%struct.b2AtomicInt = type { i32 }
%struct.b2HashSet = type { ptr, i32, i32 }
%struct.b2ConstraintGraph = type { [12 x %struct.b2GraphColor] }
%struct.b2GraphColor = type { %struct.b2BitSet, %struct.b2ContactSimArray, %struct.b2JointSimArray, %union.anon }
%struct.b2ContactSimArray = type { ptr, i32, i32 }
%struct.b2JointSimArray = type { ptr, i32, i32 }
%union.anon = type { ptr }
%struct.b2SolverSetArray = type { ptr, i32, i32 }
%struct.b2JointArray = type { ptr, i32, i32 }
%struct.b2ContactArray = type { ptr, i32, i32 }
%struct.b2IslandArray = type { ptr, i32, i32 }
%struct.b2IdPool = type { %struct.b2IntArray, i32 }
%struct.b2ShapeArray = type { ptr, i32, i32 }
%struct.b2ChainShapeArray = type { ptr, i32, i32 }
%struct.b2SensorArray = type { ptr, i32, i32 }
%struct.b2TaskContextArray = type { ptr, i32, i32 }
%struct.b2SensorTaskContextArray = type { ptr, i32, i32 }
%struct.b2BodyMoveEventArray = type { ptr, i32, i32 }
%struct.b2SensorBeginTouchEventArray = type { ptr, i32, i32 }
%struct.b2ContactBeginTouchEventArray = type { ptr, i32, i32 }
%struct.b2SensorEndTouchEventArray = type { ptr, i32, i32 }
%struct.b2ContactEndTouchEventArray = type { ptr, i32, i32 }
%struct.b2ContactHitEventArray = type { ptr, i32, i32 }
%struct.b2BitSet = type { ptr, i32, i32 }
%struct.b2Profile = type { float, float, float, float, float, float, float, float, float, float, float, float, float, float, float, float, float, float, float, float, float, float }
%struct.b2Body = type { [32 x i8], ptr, i32, i32, i32, i32, i32, i32, i32, i32, i32, i32, i32, i32, float, float, float, float, i32, i32, i32, i16, i8, i8, i8, i8 }
%struct.b2Transform = type { %struct.b2Vec2, %struct.b2Rot }
%struct.b2SolverSet = type { %struct.b2BodySimArray, %struct.b2BodyStateArray, %struct.b2JointSimArray, %struct.b2ContactSimArray, %struct.b2IslandSimArray, i32 }
%struct.b2IslandSimArray = type { ptr, i32, i32 }
%struct.b2BodySim = type { %struct.b2Transform, %struct.b2Vec2, %struct.b2Rot, %struct.b2Vec2, %struct.b2Vec2, %struct.b2Vec2, float, float, float, float, float, float, float, float, i32, i8, i8, i8, i8, i8 }
%struct.b2Shape = type { i32, i32, i32, i32, i32, i32, float, float, float, float, float, i32, %struct.b2AABB, %struct.b2AABB, %struct.b2Vec2, i32, %struct.b2Filter, ptr, i32, %union.anon.0, i16, i8, i8, i8, i8 }
%struct.b2AABB = type { %struct.b2Vec2, %struct.b2Vec2 }
%struct.b2Filter = type { i64, i64, i32 }
%union.anon.0 = type { %struct.b2Polygon }
%struct.b2Polygon = type { [8 x %struct.b2Vec2], [8 x %struct.b2Vec2], %struct.b2Vec2, float, i32 }

; Function Attrs: inlinehint nounwind uwtable
define internal ptr @b2BodySimArray_Get(ptr noundef %0, i32 noundef %1) #3 {
  %3 = alloca ptr, align 8
  %4 = alloca i32, align 4
  store ptr %0, ptr %3, align 8, !tbaa !12
  store i32 %1, ptr %4, align 4, !tbaa !3
  %5 = load ptr, ptr %3, align 8, !tbaa !12
  %6 = getelementptr inbounds nuw %struct.b2BodySimArray, ptr %5, i32 0, i32 0
  %7 = load ptr, ptr %6, align 8, !tbaa !14
  %8 = load i32, ptr %4, align 4, !tbaa !3
  %9 = sext i32 %8 to i64
  %10 = getelementptr inbounds %struct.b2BodySim, ptr %7, i64 %9
  ret ptr %10
}

; Function Attrs: inlinehint nounwind uwtable
define internal ptr @b2SolverSetArray_Get(ptr noundef %0, i32 noundef %1) #3 {
  %3 = alloca ptr, align 8
  %4 = alloca i32, align 4
  store ptr %0, ptr %3, align 8, !tbaa !12
  store i32 %1, ptr %4, align 4, !tbaa !3
  %5 = load ptr, ptr %3, align 8, !tbaa !12
  %6 = getelementptr inbounds nuw %struct.b2SolverSetArray, ptr %5, i32 0, i32 0
  %7 = load ptr, ptr %6, align 8, !tbaa !40
  %8 = load i32, ptr %4, align 4, !tbaa !3
  %9 = sext i32 %8 to i64
  %10 = getelementptr inbounds %struct.b2SolverSet, ptr %7, i64 %9
  ret ptr %10
}

; Function Attrs: inlinehint nounwind uwtable
define internal float @b2MaxFloat(float noundef %0, float noundef %1) #3 {
  %3 = alloca float, align 4
  %4 = alloca float, align 4
  store float %0, ptr %3, align 4, !tbaa !39
  store float %1, ptr %4, align 4, !tbaa !39
  %5 = load float, ptr %3, align 4, !tbaa !39
  %6 = load float, ptr %4, align 4, !tbaa !39
  %7 = fcmp ogt float %5, %6
  br i1 %7, label %8, label %10

8:                                                ; preds = %2
  %9 = load float, ptr %3, align 4, !tbaa !39
  br label %12

10:                                               ; preds = %2
  %11 = load float, ptr %4, align 4, !tbaa !39
  br label %12

12:                                               ; preds = %10, %8
  %13 = phi float [ %9, %8 ], [ %11, %10 ]
  ret float %13
}

; Function Attrs: inlinehint nounwind uwtable
define internal float @b2MinFloat(float noundef %0, float noundef %1) #3 {
  %3 = alloca float, align 4
  %4 = alloca float, align 4
  store float %0, ptr %3, align 4, !tbaa !39
  store float %1, ptr %4, align 4, !tbaa !39
  %5 = load float, ptr %3, align 4, !tbaa !39
  %6 = load float, ptr %4, align 4, !tbaa !39
  %7 = fcmp olt float %5, %6
  br i1 %7, label %8, label %10

8:                                                ; preds = %2
  %9 = load float, ptr %3, align 4, !tbaa !39
  br label %12

10:                                               ; preds = %2
  %11 = load float, ptr %4, align 4, !tbaa !39
  br label %12

12:                                               ; preds = %10, %8
  %13 = phi float [ %9, %8 ], [ %11, %10 ]
  ret float %13
}

; Function Attrs: nounwind uwtable
define hidden { <2 x float>, <2 x float> } @b2GetBodyTransformQuick(ptr noundef %0, ptr noundef %1) #0 {
  %3 = alloca %struct.b2Transform, align 4
  %4 = alloca ptr, align 8
  %5 = alloca ptr, align 8
  %6 = alloca ptr, align 8
  %7 = alloca ptr, align 8
  store ptr %0, ptr %4, align 8, !tbaa !24
  store ptr %1, ptr %5, align 8, !tbaa !29
  call void @llvm.lifetime.start.p0(i64 8, ptr %6) #8
  %8 = load ptr, ptr %4, align 8, !tbaa !24
  %9 = getelementptr inbounds nuw %struct.b2World, ptr %8, i32 0, i32 6
  %10 = load ptr, ptr %5, align 8, !tbaa !29
  %11 = getelementptr inbounds nuw %struct.b2Body, ptr %10, i32 0, i32 2
  %12 = load i32, ptr %11, align 8, !tbaa !30
  %13 = call ptr @b2SolverSetArray_Get(ptr noundef %9, i32 noundef %12)
  store ptr %13, ptr %6, align 8, !tbaa !34
  call void @llvm.lifetime.start.p0(i64 8, ptr %7) #8
  %14 = load ptr, ptr %6, align 8, !tbaa !34
  %15 = getelementptr inbounds nuw %struct.b2SolverSet, ptr %14, i32 0, i32 0
  %16 = load ptr, ptr %5, align 8, !tbaa !29
  %17 = getelementptr inbounds nuw %struct.b2Body, ptr %16, i32 0, i32 3
  %18 = load i32, ptr %17, align 4, !tbaa !36
  %19 = call ptr @b2BodySimArray_Get(ptr noundef %15, i32 noundef %18)
  store ptr %19, ptr %7, align 8, !tbaa !37
  %20 = load ptr, ptr %7, align 8, !tbaa !37
  %21 = getelementptr inbounds nuw %struct.b2BodySim, ptr %20, i32 0, i32 0
  call void @llvm.memcpy.p0.p0.i64(ptr align 4 %3, ptr align 4 %21, i64 16, i1 false), !tbaa.struct !38
  call void @llvm.lifetime.end.p0(i64 8, ptr %7) #8
  call void @llvm.lifetime.end.p0(i64 8, ptr %6) #8
  %22 = load { <2 x float>, <2 x float> }, ptr %3, align 4
  ret { <2 x float>, <2 x float> } %22
}

; Function Attrs: inlinehint nounwind uwtable
define internal ptr @b2BodyArray_Get(ptr noundef %0, i32 noundef %1) #3 {
  %3 = alloca ptr, align 8
  %4 = alloca i32, align 4
  store ptr %0, ptr %3, align 8, !tbaa !12
  store i32 %1, ptr %4, align 4, !tbaa !3
  %5 = load ptr, ptr %3, align 8, !tbaa !12
  %6 = getelementptr inbounds nuw %struct.b2BodyArray, ptr %5, i32 0, i32 0
  %7 = load ptr, ptr %6, align 8, !tbaa !7
  %8 = load i32, ptr %4, align 4, !tbaa !3
  %9 = sext i32 %8 to i64
  %10 = getelementptr inbounds %struct.b2Body, ptr %7, i64 %9
  ret ptr %10
}

; Function Attrs: inlinehint nounwind uwtable
define internal { <2 x float>, <2 x float> } @b2AABB_Union(<2 x float> %0, <2 x float> %1, <2 x float> %2, <2 x float> %3) #7 {
  %5 = alloca %struct.b2AABB, align 4
  %6 = alloca %struct.b2AABB, align 4
  %7 = alloca %struct.b2AABB, align 4
  %8 = getelementptr inbounds nuw { <2 x float>, <2 x float> }, ptr %6, i32 0, i32 0
  store <2 x float> %0, ptr %8, align 4
  %9 = getelementptr inbounds nuw { <2 x float>, <2 x float> }, ptr %6, i32 0, i32 1
  store <2 x float> %1, ptr %9, align 4
  %10 = getelementptr inbounds nuw { <2 x float>, <2 x float> }, ptr %7, i32 0, i32 0
  store <2 x float> %2, ptr %10, align 4
  %11 = getelementptr inbounds nuw { <2 x float>, <2 x float> }, ptr %7, i32 0, i32 1
  store <2 x float> %3, ptr %11, align 4
  %12 = getelementptr inbounds nuw %struct.b2AABB, ptr %6, i32 0, i32 0
  %13 = getelementptr inbounds nuw %struct.b2Vec2, ptr %12, i32 0, i32 0
  %14 = load float, ptr %13, align 4, !tbaa !229
  %15 = getelementptr inbounds nuw %struct.b2AABB, ptr %7, i32 0, i32 0
  %16 = getelementptr inbounds nuw %struct.b2Vec2, ptr %15, i32 0, i32 0
  %17 = load float, ptr %16, align 4, !tbaa !229
  %18 = call float @b2MinFloat(float noundef %14, float noundef %17)
  %19 = getelementptr inbounds nuw %struct.b2AABB, ptr %5, i32 0, i32 0
  %20 = getelementptr inbounds nuw %struct.b2Vec2, ptr %19, i32 0, i32 0
  store float %18, ptr %20, align 4, !tbaa !229
  %21 = getelementptr inbounds nuw %struct.b2AABB, ptr %6, i32 0, i32 0
  %22 = getelementptr inbounds nuw %struct.b2Vec2, ptr %21, i32 0, i32 1
  %23 = load float, ptr %22, align 4, !tbaa !230
  %24 = getelementptr inbounds nuw %struct.b2AABB, ptr %7, i32 0, i32 0
  %25 = getelementptr inbounds nuw %struct.b2Vec2, ptr %24, i32 0, i32 1
  %26 = load float, ptr %25, align 4, !tbaa !230
  %27 = call float @b2MinFloat(float noundef %23, float noundef %26)
  %28 = getelementptr inbounds nuw %struct.b2AABB, ptr %5, i32 0, i32 0
  %29 = getelementptr inbounds nuw %struct.b2Vec2, ptr %28, i32 0, i32 1
  store float %27, ptr %29, align 4, !tbaa !230
  %30 = getelementptr inbounds nuw %struct.b2AABB, ptr %6, i32 0, i32 1
  %31 = getelementptr inbounds nuw %struct.b2Vec2, ptr %30, i32 0, i32 0
  %32 = load float, ptr %31, align 4, !tbaa !231
  %33 = getelementptr inbounds nuw %struct.b2AABB, ptr %7, i32 0, i32 1
  %34 = getelementptr inbounds nuw %struct.b2Vec2, ptr %33, i32 0, i32 0
  %35 = load float, ptr %34, align 4, !tbaa !231
  %36 = call float @b2MaxFloat(float noundef %32, float noundef %35)
  %37 = getelementptr inbounds nuw %struct.b2AABB, ptr %5, i32 0, i32 1
  %38 = getelementptr inbounds nuw %struct.b2Vec2, ptr %37, i32 0, i32 0
  store float %36, ptr %38, align 4, !tbaa !231
  %39 = getelementptr inbounds nuw %struct.b2AABB, ptr %6, i32 0, i32 1
  %40 = getelementptr inbounds nuw %struct.b2Vec2, ptr %39, i32 0, i32 1
  %41 = load float, ptr %40, align 4, !tbaa !232
  %42 = getelementptr inbounds nuw %struct.b2AABB, ptr %7, i32 0, i32 1
  %43 = getelementptr inbounds nuw %struct.b2Vec2, ptr %42, i32 0, i32 1
  %44 = load float, ptr %43, align 4, !tbaa !232
  %45 = call float @b2MaxFloat(float noundef %41, float noundef %44)
  %46 = getelementptr inbounds nuw %struct.b2AABB, ptr %5, i32 0, i32 1
  %47 = getelementptr inbounds nuw %struct.b2Vec2, ptr %46, i32 0, i32 1
  store float %45, ptr %47, align 4, !tbaa !232
  %48 = load { <2 x float>, <2 x float> }, ptr %5, align 4
  ret { <2 x float>, <2 x float> } %48
}

; Function Attrs: inlinehint nounwind uwtable
define internal ptr @b2ShapeArray_Get(ptr noundef %0, i32 noundef %1) #3 {
  %3 = alloca ptr, align 8
  %4 = alloca i32, align 4
  store ptr %0, ptr %3, align 8, !tbaa !12
  store i32 %1, ptr %4, align 4, !tbaa !3
  %5 = load ptr, ptr %3, align 8, !tbaa !12
  %6 = getelementptr inbounds nuw %struct.b2ShapeArray, ptr %5, i32 0, i32 0
  %7 = load ptr, ptr %6, align 8, !tbaa !210
  %8 = load i32, ptr %4, align 4, !tbaa !3
  %9 = sext i32 %8 to i64
  %10 = getelementptr inbounds %struct.b2Shape, ptr %7, i64 %9
  ret ptr %10
}

; Function Attrs: nounwind uwtable
define hidden { <2 x float>, <2 x float> } @b2GetBodyTransform(ptr noundef %0, i32 noundef %1) #6 {
  %3 = alloca %struct.b2Transform, align 4
  %4 = alloca ptr, align 8
  %5 = alloca i32, align 4
  %6 = alloca ptr, align 8
  store ptr %0, ptr %4, align 8, !tbaa !24
  store i32 %1, ptr %5, align 4, !tbaa !3
  call void @llvm.lifetime.start.p0(i64 8, ptr %6) #8
  %7 = load ptr, ptr %4, align 8, !tbaa !24
  %8 = getelementptr inbounds nuw %struct.b2World, ptr %7, i32 0, i32 4
  %9 = load i32, ptr %5, align 4, !tbaa !3
  %10 = call ptr @b2BodyArray_Get(ptr noundef %8, i32 noundef %9)
  store ptr %10, ptr %6, align 8, !tbaa !29
  %11 = load ptr, ptr %4, align 8, !tbaa !24
  %12 = load ptr, ptr %6, align 8, !tbaa !29
  %13 = call { <2 x float>, <2 x float> } @b2GetBodyTransformQuick(ptr noundef %11, ptr noundef %12)
  %14 = getelementptr inbounds nuw { <2 x float>, <2 x float> }, ptr %3, i32 0, i32 0
  %15 = extractvalue { <2 x float>, <2 x float> } %13, 0
  store <2 x float> %15, ptr %14, align 4
  %16 = getelementptr inbounds nuw { <2 x float>, <2 x float> }, ptr %3, i32 0, i32 1
  %17 = extractvalue { <2 x float>, <2 x float> } %13, 1
  store <2 x float> %17, ptr %16, align 4
  call void @llvm.lifetime.end.p0(i64 8, ptr %6) #8
  %18 = load { <2 x float>, <2 x float> }, ptr %3, align 4
  ret { <2 x float>, <2 x float> } %18
}

; Function Attrs: nounwind uwtable
define hidden ptr @b2GetBodyFullId(ptr noundef %0, i64 %1) #0 {
  %3 = alloca %struct.b2BodyId, align 4
  %4 = alloca ptr, align 8
  store i64 %1, ptr %3, align 4
  store ptr %0, ptr %4, align 8, !tbaa !24
  %5 = load ptr, ptr %4, align 8, !tbaa !24
  %6 = getelementptr inbounds nuw %struct.b2World, ptr %5, i32 0, i32 4
  %7 = getelementptr inbounds nuw %struct.b2BodyId, ptr %3, i32 0, i32 0
  %8 = load i32, ptr %7, align 4, !tbaa !26
  %9 = sub nsw i32 %8, 1
  %10 = call ptr @b2BodyArray_Get(ptr noundef %6, i32 noundef %9)
  ret ptr %10
}

; Function Attrs: nounwind uwtable
define { <2 x float>, <2 x float> } @b2Body_ComputeAABB(i64 %0) #6 {
  %2 = alloca %struct.b2AABB, align 4
  %3 = alloca %struct.b2BodyId, align 4
  %4 = alloca ptr, align 8
  %5 = alloca i32, align 4
  %6 = alloca ptr, align 8
  %7 = alloca %struct.b2Transform, align 4
  %8 = alloca ptr, align 8
  %9 = alloca %struct.b2AABB, align 4
  store i64 %0, ptr %3, align 4
  call void @llvm.lifetime.start.p0(i64 8, ptr %4) #8
  %10 = getelementptr inbounds nuw %struct.b2BodyId, ptr %3, i32 0, i32 1
  %11 = load i16, ptr %10, align 4, !tbaa !87
  %12 = zext i16 %11 to i32
  %13 = call ptr @b2GetWorldLocked(i32 noundef %12)
  store ptr %13, ptr %4, align 8, !tbaa !24
  %14 = load ptr, ptr %4, align 8, !tbaa !24
  %15 = icmp eq ptr %14, null
  br i1 %15, label %16, label %21

16:                                               ; preds = %1
  %17 = getelementptr inbounds nuw %struct.b2AABB, ptr %2, i32 0, i32 0
  %18 = getelementptr inbounds nuw %struct.b2Vec2, ptr %17, i32 0, i32 0
  store float 0.000000e+00, ptr %18, align 4, !tbaa !226
  %19 = getelementptr inbounds nuw %struct.b2Vec2, ptr %17, i32 0, i32 1
  store float 0.000000e+00, ptr %19, align 4, !tbaa !227
  %20 = getelementptr inbounds nuw %struct.b2AABB, ptr %2, i32 0, i32 1
  call void @llvm.memset.p0.i64(ptr align 4 %20, i8 0, i64 8, i1 false)
  store i32 1, ptr %5, align 4
  br label %81

21:                                               ; preds = %1
  call void @llvm.lifetime.start.p0(i64 8, ptr %6) #8
  %22 = load ptr, ptr %4, align 8, !tbaa !24
  %23 = load i64, ptr %3, align 4
  %24 = call ptr @b2GetBodyFullId(ptr noundef %22, i64 %23)
  store ptr %24, ptr %6, align 8, !tbaa !29
  %25 = load ptr, ptr %6, align 8, !tbaa !29
  %26 = getelementptr inbounds nuw %struct.b2Body, ptr %25, i32 0, i32 6
  %27 = load i32, ptr %26, align 8, !tbaa !150
  %28 = icmp eq i32 %27, -1
  br i1 %28, label %29, label %43

29:                                               ; preds = %21
  call void @llvm.lifetime.start.p0(i64 16, ptr %7) #8
  %30 = load ptr, ptr %4, align 8, !tbaa !24
  %31 = load ptr, ptr %6, align 8, !tbaa !29
  %32 = getelementptr inbounds nuw %struct.b2Body, ptr %31, i32 0, i32 19
  %33 = load i32, ptr %32, align 4, !tbaa !161
  %34 = call { <2 x float>, <2 x float> } @b2GetBodyTransform(ptr noundef %30, i32 noundef %33)
  %35 = getelementptr inbounds nuw { <2 x float>, <2 x float> }, ptr %7, i32 0, i32 0
  %36 = extractvalue { <2 x float>, <2 x float> } %34, 0
  store <2 x float> %36, ptr %35, align 4
  %37 = getelementptr inbounds nuw { <2 x float>, <2 x float> }, ptr %7, i32 0, i32 1
  %38 = extractvalue { <2 x float>, <2 x float> } %34, 1
  store <2 x float> %38, ptr %37, align 4
  %39 = getelementptr inbounds nuw %struct.b2AABB, ptr %2, i32 0, i32 0
  %40 = getelementptr inbounds nuw %struct.b2Transform, ptr %7, i32 0, i32 0
  call void @llvm.memcpy.p0.p0.i64(ptr align 4 %39, ptr align 4 %40, i64 8, i1 false), !tbaa.struct !115
  %41 = getelementptr inbounds nuw %struct.b2AABB, ptr %2, i32 0, i32 1
  %42 = getelementptr inbounds nuw %struct.b2Transform, ptr %7, i32 0, i32 0
  call void @llvm.memcpy.p0.p0.i64(ptr align 4 %41, ptr align 4 %42, i64 8, i1 false), !tbaa.struct !115
  store i32 1, ptr %5, align 4
  call void @llvm.lifetime.end.p0(i64 16, ptr %7) #8
  br label %80

43:                                               ; preds = %21
  call void @llvm.lifetime.start.p0(i64 8, ptr %8) #8
  %44 = load ptr, ptr %4, align 8, !tbaa !24
  %45 = getelementptr inbounds nuw %struct.b2World, ptr %44, i32 0, i32 15
  %46 = load ptr, ptr %6, align 8, !tbaa !29
  %47 = getelementptr inbounds nuw %struct.b2Body, ptr %46, i32 0, i32 6
  %48 = load i32, ptr %47, align 8, !tbaa !150
  %49 = call ptr @b2ShapeArray_Get(ptr noundef %45, i32 noundef %48)
  store ptr %49, ptr %8, align 8, !tbaa !190
  %50 = load ptr, ptr %8, align 8, !tbaa !190
  %51 = getelementptr inbounds nuw %struct.b2Shape, ptr %50, i32 0, i32 12
  call void @llvm.memcpy.p0.p0.i64(ptr align 4 %2, ptr align 8 %51, i64 16, i1 false), !tbaa.struct !38
  br label %52

52:                                               ; preds = %57, %43
  %53 = load ptr, ptr %8, align 8, !tbaa !190
  %54 = getelementptr inbounds nuw %struct.b2Shape, ptr %53, i32 0, i32 3
  %55 = load i32, ptr %54, align 4, !tbaa !196
  %56 = icmp ne i32 %55, -1
  br i1 %56, label %57, label %79

57:                                               ; preds = %52
  %58 = load ptr, ptr %4, align 8, !tbaa !24
  %59 = getelementptr inbounds nuw %struct.b2World, ptr %58, i32 0, i32 15
  %60 = load ptr, ptr %8, align 8, !tbaa !190
  %61 = getelementptr inbounds nuw %struct.b2Shape, ptr %60, i32 0, i32 3
  %62 = load i32, ptr %61, align 4, !tbaa !196
  %63 = call ptr @b2ShapeArray_Get(ptr noundef %59, i32 noundef %62)
  store ptr %63, ptr %8, align 8, !tbaa !190
  call void @llvm.lifetime.start.p0(i64 16, ptr %9) #8
  %64 = load ptr, ptr %8, align 8, !tbaa !190
  %65 = getelementptr inbounds nuw %struct.b2Shape, ptr %64, i32 0, i32 12
  %66 = getelementptr inbounds nuw { <2 x float>, <2 x float> }, ptr %2, i32 0, i32 0
  %67 = load <2 x float>, ptr %66, align 4
  %68 = getelementptr inbounds nuw { <2 x float>, <2 x float> }, ptr %2, i32 0, i32 1
  %69 = load <2 x float>, ptr %68, align 4
  %70 = getelementptr inbounds nuw { <2 x float>, <2 x float> }, ptr %65, i32 0, i32 0
  %71 = load <2 x float>, ptr %70, align 8
  %72 = getelementptr inbounds nuw { <2 x float>, <2 x float> }, ptr %65, i32 0, i32 1
  %73 = load <2 x float>, ptr %72, align 8
  %74 = call { <2 x float>, <2 x float> } @b2AABB_Union(<2 x float> %67, <2 x float> %69, <2 x float> %71, <2 x float> %73)
  %75 = getelementptr inbounds nuw { <2 x float>, <2 x float> }, ptr %9, i32 0, i32 0
  %76 = extractvalue { <2 x float>, <2 x float> } %74, 0
  store <2 x float> %76, ptr %75, align 4
  %77 = getelementptr inbounds nuw { <2 x float>, <2 x float> }, ptr %9, i32 0, i32 1
  %78 = extractvalue { <2 x float>, <2 x float> } %74, 1
  store <2 x float> %78, ptr %77, align 4
  call void @llvm.memcpy.p0.p0.i64(ptr align 4 %2, ptr align 4 %9, i64 16, i1 false), !tbaa.struct !38
  call void @llvm.lifetime.end.p0(i64 16, ptr %9) #8
  br label %52, !llvm.loop !228

79:                                               ; preds = %52
  store i32 1, ptr %5, align 4
  call void @llvm.lifetime.end.p0(i64 8, ptr %8) #8
  br label %80

80:                                               ; preds = %79, %29
  call void @llvm.lifetime.end.p0(i64 8, ptr %6) #8
  br label %81

81:                                               ; preds = %80, %16
  call void @llvm.lifetime.end.p0(i64 8, ptr %4) #8
  %82 = load { <2 x float>, <2 x float> }, ptr %2, align 4
  ret { <2 x float>, <2 x float> } %82
}