; Function Attrs: nounwind uwtable
define { <2 x float>, <2 x float> } @b2Body_ComputeAABB(i64 %0) local_unnamed_addr #8 {
  %.sroa.2.0.extract.shift = lshr i64 %0, 32
  %2 = trunc nuw i64 %.sroa.2.0.extract.shift to i32
  %3 = and i32 %2, 65535
  %4 = tail call ptr @b2GetWorldLocked(i32 noundef %3) #10
  %5 = icmp eq ptr %4, null
  br i1 %5, label %.loopexit, label %6

6:                                                ; preds = %1
  %7 = getelementptr inbounds nuw i8, ptr %4, i64 1032
  %.val.i = load ptr, ptr %7, align 8, !tbaa !10
  %8 = shl i64 %0, 32
  %sext.i = add i64 %8, -4294967296
  %9 = ashr exact i64 %sext.i, 25
  %10 = getelementptr inbounds i8, ptr %.val.i, i64 %9
  %11 = getelementptr inbounds nuw i8, ptr %10, i64 56
  %12 = load i32, ptr %11, align 8, !tbaa !128
  %13 = icmp eq i32 %12, -1
  br i1 %13, label %14, label %28

14:                                               ; preds = %6
  %15 = getelementptr inbounds nuw i8, ptr %10, i64 108
  %16 = load i32, ptr %15, align 4, !tbaa !139
  %17 = sext i32 %16 to i64
  %18 = getelementptr inbounds %struct.b2Body, ptr %.val.i, i64 %17
  %19 = getelementptr inbounds nuw i8, ptr %4, i64 1072
  %20 = getelementptr inbounds nuw i8, ptr %18, i64 40
  %21 = load i32, ptr %20, align 8, !tbaa !19
  %.val.i.i = load ptr, ptr %19, align 8, !tbaa !24
  %22 = sext i32 %21 to i64
  %23 = getelementptr inbounds %struct.b2SolverSet, ptr %.val.i.i, i64 %22
  %24 = getelementptr inbounds nuw i8, ptr %18, i64 44
  %25 = load i32, ptr %24, align 4, !tbaa !27
  %.val5.i.i = load ptr, ptr %23, align 8, !tbaa !14
  %26 = sext i32 %25 to i64
  %27 = getelementptr inbounds %struct.b2BodySim, ptr %.val5.i.i, i64 %26
  %.sroa.0.0.copyload.i.i = load <2 x float>, ptr %27, align 4
  br label %.loopexit

28:                                               ; preds = %6
  %29 = getelementptr inbounds nuw i8, ptr %4, i64 1256
  %.val22 = load ptr, ptr %29, align 8, !tbaa !165
  %30 = sext i32 %12 to i64
  %31 = getelementptr inbounds %struct.b2Shape, ptr %.val22, i64 %30
  %32 = getelementptr inbounds nuw i8, ptr %31, i64 48
  %.sroa.015.0.copyload = load <2 x float>, ptr %32, align 8
  %.sroa.7.0..sroa_idx = getelementptr inbounds nuw i8, ptr %31, i64 56
  %.sroa.7.0.copyload = load <2 x float>, ptr %.sroa.7.0..sroa_idx, align 8
  %33 = getelementptr inbounds %struct.b2Shape, ptr %.val22, i64 %30, i32 3
  %34 = load i32, ptr %33, align 4, !tbaa !190
  %.not24 = icmp eq i32 %34, -1
  br i1 %.not24, label %.loopexit, label %.lr.ph

.lr.ph:                                           ; preds = %28, %.lr.ph
  %35 = phi i32 [ %51, %.lr.ph ], [ %34, %28 ]
  %.sroa.7.226 = phi <2 x float> [ %.sroa.35.12.vec.insert.i, %.lr.ph ], [ %.sroa.7.0.copyload, %28 ]
  %.sroa.015.225 = phi <2 x float> [ %.sroa.03.4.vec.insert.i, %.lr.ph ], [ %.sroa.015.0.copyload, %28 ]
  %36 = sext i32 %35 to i64
  %37 = getelementptr inbounds %struct.b2Shape, ptr %.val22, i64 %36
  %38 = getelementptr inbounds nuw i8, ptr %37, i64 48
  %39 = load <2 x float>, ptr %38, align 8
  %40 = getelementptr inbounds nuw i8, ptr %37, i64 56
  %41 = load <2 x float>, ptr %40, align 8
  %.sroa.01.0.vec.extract.i = extractelement <2 x float> %.sroa.015.225, i64 0
  %.sroa.0.0.vec.extract.i = extractelement <2 x float> %39, i64 0
  %42 = fcmp olt float %.sroa.01.0.vec.extract.i, %.sroa.0.0.vec.extract.i
  %43 = select i1 %42, float %.sroa.01.0.vec.extract.i, float %.sroa.0.0.vec.extract.i
  %.sroa.03.0.vec.insert.i = insertelement <2 x float> poison, float %43, i64 0
  %.sroa.01.4.vec.extract.i = extractelement <2 x float> %.sroa.015.225, i64 1
  %.sroa.0.4.vec.extract.i = extractelement <2 x float> %39, i64 1
  %44 = fcmp olt float %.sroa.01.4.vec.extract.i, %.sroa.0.4.vec.extract.i
  %45 = select i1 %44, float %.sroa.01.4.vec.extract.i, float %.sroa.0.4.vec.extract.i
  %.sroa.03.4.vec.insert.i = insertelement <2 x float> %.sroa.03.0.vec.insert.i, float %45, i64 1
  %.sroa.32.8.vec.extract.i = extractelement <2 x float> %.sroa.7.226, i64 0
  %.sroa.3.8.vec.extract.i = extractelement <2 x float> %41, i64 0
  %46 = fcmp ogt float %.sroa.32.8.vec.extract.i, %.sroa.3.8.vec.extract.i
  %47 = select i1 %46, float %.sroa.32.8.vec.extract.i, float %.sroa.3.8.vec.extract.i
  %.sroa.35.8.vec.insert.i = insertelement <2 x float> poison, float %47, i64 0
  %.sroa.32.12.vec.extract.i = extractelement <2 x float> %.sroa.7.226, i64 1
  %.sroa.3.12.vec.extract.i = extractelement <2 x float> %41, i64 1
  %48 = fcmp ogt float %.sroa.32.12.vec.extract.i, %.sroa.3.12.vec.extract.i
  %49 = select i1 %48, float %.sroa.32.12.vec.extract.i, float %.sroa.3.12.vec.extract.i
  %.sroa.35.12.vec.insert.i = insertelement <2 x float> %.sroa.35.8.vec.insert.i, float %49, i64 1
  %50 = getelementptr inbounds %struct.b2Shape, ptr %.val22, i64 %36, i32 3
  %51 = load i32, ptr %50, align 4, !tbaa !190
  %.not = icmp eq i32 %51, -1
  br i1 %.not, label %.loopexit, label %.lr.ph, !llvm.loop !191

.loopexit:                                        ; preds = %.lr.ph, %28, %14, %1
  %.sroa.015.0 = phi <2 x float> [ zeroinitializer, %1 ], [ %.sroa.0.0.copyload.i.i, %14 ], [ %.sroa.015.0.copyload, %28 ], [ %.sroa.03.4.vec.insert.i, %.lr.ph ]
  %.sroa.7.0 = phi <2 x float> [ zeroinitializer, %1 ], [ %.sroa.0.0.copyload.i.i, %14 ], [ %.sroa.7.0.copyload, %28 ], [ %.sroa.35.12.vec.insert.i, %.lr.ph ]
  %.fca.0.insert = insertvalue { <2 x float>, <2 x float> } poison, <2 x float> %.sroa.015.0, 0
  %.fca.1.insert = insertvalue { <2 x float>, <2 x float> } %.fca.0.insert, <2 x float> %.sroa.7.0, 1
  ret { <2 x float>, <2 x float> } %.fca.1.insert
}